; Function Attrs: mustprogress nounwind uwtable
define hidden void @_ZN15ClassLoaderData17ChunkedHandleList7oops_doEP10OopClosure(ptr noundef nonnull align 8 dereferenceable(8) %0, ptr noundef %1) local_unnamed_addr #0 align 2 {
  %3 = load volatile ptr, ptr %0, align 8
  tail call void asm sideeffect "", "~{memory},~{dirflag},~{fpsr},~{flags}"() #16, !srcloc !10
  %.not = icmp eq ptr %3, null
  br i1 %.not, label %.loopexit, label %4

4:                                                ; preds = %2
  %5 = getelementptr inbounds i8, ptr %3, i64 256
  %6 = load volatile i32, ptr %5, align 4
  tail call void asm sideeffect "", "~{memory},~{dirflag},~{fpsr},~{flags}"() #16, !srcloc !10
  %.not.i = icmp eq i32 %6, 0
  br i1 %.not.i, label %_ZN15ClassLoaderData17ChunkedHandleList13oops_do_chunkEP10OopClosurePNS0_5ChunkEj.exit, label %.lr.ph.preheader.i

.lr.ph.preheader.i:                               ; preds = %4
  %wide.trip.count.i = zext i32 %6 to i64
  br label %.lr.ph.i

.lr.ph.i:                                         ; preds = %.lr.ph.i, %.lr.ph.preheader.i
  %indvars.iv.i = phi i64 [ 0, %.lr.ph.preheader.i ], [ %indvars.iv.next.i, %.lr.ph.i ]
  %7 = getelementptr inbounds [32 x ptr], ptr %3, i64 0, i64 %indvars.iv.i
  %8 = load ptr, ptr %1, align 8
  %9 = load ptr, ptr %8, align 8
  tail call void %9(ptr noundef nonnull align 8 dereferenceable(8) %1, ptr noundef nonnull %7) #16
  %indvars.iv.next.i = add nuw nsw i64 %indvars.iv.i, 1
  %exitcond.not.i = icmp eq i64 %indvars.iv.next.i, %wide.trip.count.i
  br i1 %exitcond.not.i, label %_ZN15ClassLoaderData17ChunkedHandleList13oops_do_chunkEP10OopClosurePNS0_5ChunkEj.exit, label %.lr.ph.i, !llvm.loop !14

_ZN15ClassLoaderData17ChunkedHandleList13oops_do_chunkEP10OopClosurePNS0_5ChunkEj.exit: ; preds = %.lr.ph.i, %4
  %.0.in21 = getelementptr inbounds i8, ptr %3, i64 264
  %.022 = load ptr, ptr %.0.in21, align 8
  %.not1223 = icmp eq ptr %.022, null
  br i1 %.not1223, label %.loopexit, label %.lr.ph

.lr.ph:                                           ; preds = %_ZN15ClassLoaderData17ChunkedHandleList13oops_do_chunkEP10OopClosurePNS0_5ChunkEj.exit, %_ZN15ClassLoaderData17ChunkedHandleList13oops_do_chunkEP10OopClosurePNS0_5ChunkEj.exit20
  %.024 = phi ptr [ %.0, %_ZN15ClassLoaderData17ChunkedHandleList13oops_do_chunkEP10OopClosurePNS0_5ChunkEj.exit20 ], [ %.022, %_ZN15ClassLoaderData17ChunkedHandleList13oops_do_chunkEP10OopClosurePNS0_5ChunkEj.exit ]
  %10 = getelementptr inbounds i8, ptr %.024, i64 256
  %11 = load volatile i32, ptr %10, align 8
  %.not.i13 = icmp eq i32 %11, 0
  br i1 %.not.i13, label %_ZN15ClassLoaderData17ChunkedHandleList13oops_do_chunkEP10OopClosurePNS0_5ChunkEj.exit20, label %.lr.ph.preheader.i14

.lr.ph.preheader.i14:                             ; preds = %.lr.ph
  %wide.trip.count.i15 = zext i32 %11 to i64
  br label %.lr.ph.i16

.lr.ph.i16:                                       ; preds = %.lr.ph.i16, %.lr.ph.preheader.i14
  %indvars.iv.i17 = phi i64 [ 0, %.lr.ph.preheader.i14 ], [ %indvars.iv.next.i18, %.lr.ph.i16 ]
  %12 = getelementptr inbounds [32 x ptr], ptr %.024, i64 0, i64 %indvars.iv.i17
  %13 = load ptr, ptr %1, align 8
  %14 = load ptr, ptr %13, align 8
  tail call void %14(ptr noundef nonnull align 8 dereferenceable(8) %1, ptr noundef nonnull %12) #16
  %indvars.iv.next.i18 = add nuw nsw i64 %indvars.iv.i17, 1
  %exitcond.not.i19 = icmp eq i64 %indvars.iv.next.i18, %wide.trip.count.i15
  br i1 %exitcond.not.i19, label %_ZN15ClassLoaderData17ChunkedHandleList13oops_do_chunkEP10OopClosurePNS0_5ChunkEj.exit20, label %.lr.ph.i16, !llvm.loop !14

_ZN15ClassLoaderData17ChunkedHandleList13oops_do_chunkEP10OopClosurePNS0_5ChunkEj.exit20: ; preds = %.lr.ph.i16, %.lr.ph
  %.0.in = getelementptr inbounds i8, ptr %.024, i64 264
  %.0 = load ptr, ptr %.0.in, align 8
  %.not12 = icmp eq ptr %.0, null
  br i1 %.not12, label %.loopexit, label %.lr.ph, !llvm.loop !15

.loopexit:                                        ; preds = %_ZN15ClassLoaderData17ChunkedHandleList13oops_do_chunkEP10OopClosurePNS0_5ChunkEj.exit20, %_ZN15ClassLoaderData17ChunkedHandleList13oops_do_chunkEP10OopClosurePNS0_5ChunkEj.exit, %2
  ret void
}